target datalayout = "e-m:e-p270:32:32-p271:32:32-p272:64:64-i64:64-i128:128-f80:128-n8:16:32:64-S128"
target triple = "x86_64-pc-linux-gnu"

%"class.cv::UMat" = type { i32, i32, i32, i32, ptr, i32, ptr, i64, %"struct.cv::MatSize", %"struct.cv::MatStep" }
%"struct.cv::MatSize" = type { ptr }
%"struct.cv::MatStep" = type { ptr, [2 x i64] }

; Function Attrs: inlinehint mustprogress nounwind uwtable
define linkonce_odr hidden noundef nonnull align 8 dereferenceable(8) ptr @_ZN2cv7MatStepixEi(ptr noundef nonnull align 8 dereferenceable(24) %0, i32 noundef %1) #5 comdat align 2 {
  %3 = alloca ptr, align 8
  %4 = alloca i32, align 4
  store ptr %0, ptr %3, align 8, !tbaa !86
  store i32 %1, ptr %4, align 4, !tbaa !37
  %5 = load ptr, ptr %3, align 8
  %6 = getelementptr inbounds nuw %"struct.cv::MatStep", ptr %5, i32 0, i32 0
  %7 = load ptr, ptr %6, align 8, !tbaa !88
  %8 = load i32, ptr %4, align 4, !tbaa !37
  %9 = sext i32 %8 to i64
  %10 = getelementptr inbounds i64, ptr %7, i64 %9
  ret ptr %10
}

; Function Attrs: inlinehint mustprogress nounwind uwtable
define linkonce_odr hidden noundef nonnull align 8 dereferenceable(8) ptr @_ZNK2cv7MatStepixEi(ptr noundef nonnull align 8 dereferenceable(24) %0, i32 noundef %1) #5 comdat align 2 {
  %3 = alloca ptr, align 8
  %4 = alloca i32, align 4
  store ptr %0, ptr %3, align 8, !tbaa !86
  store i32 %1, ptr %4, align 4, !tbaa !37
  %5 = load ptr, ptr %3, align 8
  %6 = getelementptr inbounds nuw %"struct.cv::MatStep", ptr %5, i32 0, i32 0
  %7 = load ptr, ptr %6, align 8, !tbaa !88
  %8 = load i32, ptr %4, align 4, !tbaa !37
  %9 = sext i32 %8 to i64
  %10 = getelementptr inbounds i64, ptr %7, i64 %9
  ret ptr %10
}

; Function Attrs: inlinehint mustprogress nounwind uwtable
define linkonce_odr hidden noundef nonnull align 4 dereferenceable(4) ptr @_ZN2cv7MatSizeixEi(ptr noundef nonnull align 8 dereferenceable(8) %0, i32 noundef %1) #5 comdat align 2 {
  %3 = alloca ptr, align 8
  %4 = alloca i32, align 4
  store ptr %0, ptr %3, align 8, !tbaa !82
  store i32 %1, ptr %4, align 4, !tbaa !37
  %5 = load ptr, ptr %3, align 8
  %6 = getelementptr inbounds nuw %"struct.cv::MatSize", ptr %5, i32 0, i32 0
  %7 = load ptr, ptr %6, align 8, !tbaa !85
  %8 = load i32, ptr %4, align 4, !tbaa !37
  %9 = sext i32 %8 to i64
  %10 = getelementptr inbounds i32, ptr %7, i64 %9
  ret ptr %10
}

; Function Attrs: inlinehint mustprogress nounwind uwtable
define linkonce_odr hidden noundef nonnull align 4 dereferenceable(4) ptr @_ZNK2cv7MatSizeixEi(ptr noundef nonnull align 8 dereferenceable(8) %0, i32 noundef %1) #5 comdat align 2 {
  %3 = alloca ptr, align 8
  %4 = alloca i32, align 4
  store ptr %0, ptr %3, align 8, !tbaa !82
  store i32 %1, ptr %4, align 4, !tbaa !37
  %5 = load ptr, ptr %3, align 8
  %6 = getelementptr inbounds nuw %"struct.cv::MatSize", ptr %5, i32 0, i32 0
  %7 = load ptr, ptr %6, align 8, !tbaa !85
  %8 = load i32, ptr %4, align 4, !tbaa !37
  %9 = sext i32 %8 to i64
  %10 = getelementptr inbounds i32, ptr %7, i64 %9
  ret ptr %10
}

; Function Attrs: mustprogress uwtable
define void @_ZN2cv4UMat8copySizeERKS0_(ptr noundef nonnull align 8 dereferenceable(80) %0, ptr noundef nonnull align 8 dereferenceable(80) %1) #3 align 2 {
  %3 = alloca ptr, align 8
  %4 = alloca ptr, align 8
  %5 = alloca i32, align 4
  store ptr %0, ptr %3, align 8, !tbaa !65
  store ptr %1, ptr %4, align 8, !tbaa !65
  %6 = load ptr, ptr %3, align 8
  %7 = load ptr, ptr %4, align 8, !tbaa !65
  %8 = getelementptr inbounds nuw %"class.cv::UMat", ptr %7, i32 0, i32 1
  %9 = load i32, ptr %8, align 4, !tbaa !75
  call void @_ZN2cv7setSizeERNS_4UMatEiPKiPKmb(ptr noundef nonnull align 8 dereferenceable(80) %6, i32 noundef %9, ptr noundef null, ptr noundef null, i1 noundef zeroext false)
  call void @llvm.lifetime.start.p0(i64 4, ptr %5) #16
  store i32 0, ptr %5, align 4, !tbaa !37
  br label %10

10:                                               ; preds = %33, %2
  %11 = load i32, ptr %5, align 4, !tbaa !37
  %12 = getelementptr inbounds nuw %"class.cv::UMat", ptr %6, i32 0, i32 1
  %13 = load i32, ptr %12, align 4, !tbaa !75
  %14 = icmp slt i32 %11, %13
  br i1 %14, label %16, label %15

15:                                               ; preds = %10
  call void @llvm.lifetime.end.p0(i64 4, ptr %5) #16
  br label %36

16:                                               ; preds = %10
  %17 = load ptr, ptr %4, align 8, !tbaa !65
  %18 = getelementptr inbounds nuw %"class.cv::UMat", ptr %17, i32 0, i32 8
  %19 = load i32, ptr %5, align 4, !tbaa !37
  %20 = call noundef nonnull align 4 dereferenceable(4) ptr @_ZNK2cv7MatSizeixEi(ptr noundef nonnull align 8 dereferenceable(8) %18, i32 noundef %19)
  %21 = load i32, ptr %20, align 4, !tbaa !37
  %22 = getelementptr inbounds nuw %"class.cv::UMat", ptr %6, i32 0, i32 8
  %23 = load i32, ptr %5, align 4, !tbaa !37
  %24 = call noundef nonnull align 4 dereferenceable(4) ptr @_ZN2cv7MatSizeixEi(ptr noundef nonnull align 8 dereferenceable(8) %22, i32 noundef %23)
  store i32 %21, ptr %24, align 4, !tbaa !37
  %25 = load ptr, ptr %4, align 8, !tbaa !65
  %26 = getelementptr inbounds nuw %"class.cv::UMat", ptr %25, i32 0, i32 9
  %27 = load i32, ptr %5, align 4, !tbaa !37
  %28 = call noundef nonnull align 8 dereferenceable(8) ptr @_ZNK2cv7MatStepixEi(ptr noundef nonnull align 8 dereferenceable(24) %26, i32 noundef %27) #16
  %29 = load i64, ptr %28, align 8, !tbaa !50
  %30 = getelementptr inbounds nuw %"class.cv::UMat", ptr %6, i32 0, i32 9
  %31 = load i32, ptr %5, align 4, !tbaa !37
  %32 = call noundef nonnull align 8 dereferenceable(8) ptr @_ZN2cv7MatStepixEi(ptr noundef nonnull align 8 dereferenceable(24) %30, i32 noundef %31) #16
  store i64 %29, ptr %32, align 8, !tbaa !50
  br label %33

33:                                               ; preds = %16
  %34 = load i32, ptr %5, align 4, !tbaa !37
  %35 = add nsw i32 %34, 1
  store i32 %35, ptr %5, align 4, !tbaa !37
  br label %10, !llvm.loop !99

36:                                               ; preds = %15
  ret void
}